; Function Attrs: mustprogress nofree nounwind willreturn memory(write, argmem: readwrite) uwtable
define void @_ZNK3g2o15RobustKernelDCS9robustifyEdRN5Eigen6MatrixIdLi3ELi1ELi0ELi3ELi1EEE(ptr noundef nonnull readonly align 8 captures(none) dereferenceable(16) %0, double noundef %1, ptr noundef nonnull writeonly align 8 captures(none) dereferenceable(24) initializes((0, 24)) %2) unnamed_addr #6 align 2 personality ptr @__gxx_personality_v0 {
  %4 = getelementptr inbounds nuw i8, ptr %0, i64 8
  %5 = load double, ptr %4, align 8, !tbaa !24
  %6 = fmul double %5, 2.000000e+00
  %7 = fadd double %1, %5
  %8 = fdiv double %6, %7
  %9 = fcmp ult double %8, 1.000000e+00
  br i1 %9, label %12, label %10

10:                                               ; preds = %3
  store double %1, ptr %2, align 8, !tbaa !24
  %11 = getelementptr inbounds nuw i8, ptr %2, i64 8
  store double 1.000000e+00, ptr %11, align 8, !tbaa !24
  br label %33

12:                                               ; preds = %3
  %13 = fmul double %5, %5
  %14 = fmul double %1, %8
  %15 = fmul double %8, %14
  store double %15, ptr %2, align 8, !tbaa !24
  %16 = fmul double %13, 4.000000e+00
  %17 = load double, ptr %4, align 8, !tbaa !24
  %18 = fsub double %17, %1
  %19 = fmul double %16, %18
  %20 = fadd double %1, %17
  %21 = tail call noundef double @pow(double noundef %20, double noundef 3.000000e+00) #21, !tbaa !15
  %22 = fdiv double %19, %21
  %23 = getelementptr inbounds nuw i8, ptr %2, i64 8
  store double %22, ptr %23, align 8, !tbaa !24
  %24 = fmul double %13, 8.000000e+00
  %25 = load double, ptr %4, align 8, !tbaa !24
  %26 = fneg double %1
  %27 = tail call double @llvm.fmuladd.f64(double %25, double 2.000000e+00, double %26)
  %28 = fneg double %27
  %29 = fmul double %24, %28
  %30 = fadd double %1, %25
  %31 = tail call noundef double @pow(double noundef %30, double noundef 4.000000e+00) #21, !tbaa !15
  %32 = fdiv double %29, %31
  br label %33

33:                                               ; preds = %12, %10
  %.sink = phi double [ %32, %12 ], [ 0.000000e+00, %10 ]
  %34 = getelementptr inbounds nuw i8, ptr %2, i64 16
  store double %.sink, ptr %34, align 8, !tbaa !24
  ret void
}